; Function Attrs: mustprogress nounwind uwtable
define hidden void @_ZN25G1CollectionCandidateList3setEP28G1CollectionSetCandidateInfoj(ptr noundef nonnull align 8 dereferenceable(24) %0, ptr nocapture noundef readonly %1, i32 noundef %2) local_unnamed_addr #0 align 2 {
  %4 = icmp sgt i32 %2, 0
  br i1 %4, label %.lr.ph.i, label %_ZN26GrowableArrayWithAllocatorI28G1CollectionSetCandidateInfo13GrowableArrayIS0_EE9appendAllEPK17GrowableArrayViewIS0_E.exit

.lr.ph.i:                                         ; preds = %3
  %5 = getelementptr inbounds i8, ptr %0, i64 4
  %6 = getelementptr inbounds i8, ptr %0, i64 8
  %7 = zext nneg i32 %2 to i64
  br label %8

8:                                                ; preds = %_ZN26GrowableArrayWithAllocatorI28G1CollectionSetCandidateInfo13GrowableArrayIS0_EE11at_put_growEiRKS0_S5_.exit.i, %.lr.ph.i
  %indvars.iv.i = phi i64 [ 0, %.lr.ph.i ], [ %indvars.iv.next.i, %_ZN26GrowableArrayWithAllocatorI28G1CollectionSetCandidateInfo13GrowableArrayIS0_EE11at_put_growEiRKS0_S5_.exit.i ]
  %9 = load i32, ptr %0, align 8
  %10 = getelementptr inbounds %struct.G1CollectionSetCandidateInfo, ptr %1, i64 %indvars.iv.i
  %11 = load i32, ptr %5, align 4
  %.not12.i.i = icmp sgt i32 %11, %9
  %.pre.i = add nsw i32 %9, 1
  br i1 %.not12.i.i, label %_ZN26GrowableArrayWithAllocatorI28G1CollectionSetCandidateInfo13GrowableArrayIS0_EE11at_put_growEiRKS0_S5_.exit.i, label %12

12:                                               ; preds = %8
  %13 = icmp sgt i32 %9, -1
  %14 = xor i32 %9, -2147483648
  %15 = and i32 %14, %.pre.i
  %16 = icmp eq i32 %15, 0
  %17 = and i1 %13, %16
  %18 = tail call range(i32 0, 33) i32 @llvm.ctlz.i32(i32 %.pre.i, i1 true)
  %19 = sub nuw nsw i32 32, %18
  %20 = shl nuw i32 1, %19
  %.0.i.i.i.i.i = select i1 %17, i32 %.pre.i, i32 %20
  tail call void @_ZN26GrowableArrayWithAllocatorI28G1CollectionSetCandidateInfo13GrowableArrayIS0_EE9expand_toEi(ptr noundef nonnull align 8 dereferenceable(16) %0, i32 noundef %.0.i.i.i.i.i)
  %.pre.i.i = load i32, ptr %0, align 8
  %21 = icmp slt i32 %.pre.i.i, %9
  br i1 %21, label %.lr.ph.i.i, label %_ZN26GrowableArrayWithAllocatorI28G1CollectionSetCandidateInfo13GrowableArrayIS0_EE11at_put_growEiRKS0_S5_.exit.i

.lr.ph.i.i:                                       ; preds = %12
  %22 = sext i32 %.pre.i.i to i64
  %wide.trip.count.i.i = sext i32 %9 to i64
  br label %23

23:                                               ; preds = %23, %.lr.ph.i.i
  %indvars.iv.i.i = phi i64 [ %22, %.lr.ph.i.i ], [ %indvars.iv.next.i.i, %23 ]
  %24 = load ptr, ptr %6, align 8
  %25 = getelementptr inbounds %struct.G1CollectionSetCandidateInfo, ptr %24, i64 %indvars.iv.i.i
  tail call void @llvm.memset.p0.i64(ptr noundef nonnull align 8 dereferenceable(20) %25, i8 0, i64 20, i1 false)
  %indvars.iv.next.i.i = add nsw i64 %indvars.iv.i.i, 1
  %exitcond.not.i.i = icmp eq i64 %indvars.iv.next.i.i, %wide.trip.count.i.i
  br i1 %exitcond.not.i.i, label %_ZN26GrowableArrayWithAllocatorI28G1CollectionSetCandidateInfo13GrowableArrayIS0_EE11at_put_growEiRKS0_S5_.exit.i, label %23, !llvm.loop !8

_ZN26GrowableArrayWithAllocatorI28G1CollectionSetCandidateInfo13GrowableArrayIS0_EE11at_put_growEiRKS0_S5_.exit.i: ; preds = %23, %12, %8
  store i32 %.pre.i, ptr %0, align 8
  %26 = load ptr, ptr %6, align 8
  %27 = sext i32 %9 to i64
  %28 = getelementptr inbounds %struct.G1CollectionSetCandidateInfo, ptr %26, i64 %27
  tail call void @llvm.memcpy.p0.p0.i64(ptr noundef nonnull align 8 dereferenceable(20) %28, ptr noundef nonnull align 8 dereferenceable(20) %10, i64 20, i1 false)
  %indvars.iv.next.i = add nuw nsw i64 %indvars.iv.i, 1
  %exitcond.not = icmp eq i64 %indvars.iv.next.i, %7
  br i1 %exitcond.not, label %_ZN26GrowableArrayWithAllocatorI28G1CollectionSetCandidateInfo13GrowableArrayIS0_EE9appendAllEPK17GrowableArrayViewIS0_E.exit, label %8, !llvm.loop !9

_ZN26GrowableArrayWithAllocatorI28G1CollectionSetCandidateInfo13GrowableArrayIS0_EE9appendAllEPK17GrowableArrayViewIS0_E.exit: ; preds = %_ZN26GrowableArrayWithAllocatorI28G1CollectionSetCandidateInfo13GrowableArrayIS0_EE11at_put_growEiRKS0_S5_.exit.i, %3
  ret void
}